; Function Attrs: mustprogress nounwind uwtable
define dso_local void @_ZN25cmMakefileTargetGenerator16CloseFileStreamsEv(ptr nocapture noundef nonnull align 8 dereferenceable(1064) %0) unnamed_addr #4 align 2 personality ptr @__gxx_personality_v0 {
  %2 = getelementptr inbounds i8, ptr %0, i64 320
  %3 = load ptr, ptr %2, align 8
  store ptr null, ptr %2, align 8
  %.not.i.i = icmp eq ptr %3, null
  br i1 %.not.i.i, label %_ZNSt10unique_ptrI21cmGeneratedFileStreamSt14default_deleteIS0_EE5resetEPS0_.exit, label %_ZNKSt14default_deleteI21cmGeneratedFileStreamEclEPS0_.exit.i.i

_ZNKSt14default_deleteI21cmGeneratedFileStreamEclEPS0_.exit.i.i: ; preds = %1
  %4 = load ptr, ptr %3, align 8
  %5 = getelementptr inbounds i8, ptr %4, i64 8
  %6 = load ptr, ptr %5, align 8
  tail call void %6(ptr noundef nonnull align 8 dereferenceable(348) %3) #20
  br label %_ZNSt10unique_ptrI21cmGeneratedFileStreamSt14default_deleteIS0_EE5resetEPS0_.exit

_ZNSt10unique_ptrI21cmGeneratedFileStreamSt14default_deleteIS0_EE5resetEPS0_.exit: ; preds = %1, %_ZNKSt14default_deleteI21cmGeneratedFileStreamEclEPS0_.exit.i.i
  %7 = getelementptr inbounds i8, ptr %0, i64 448
  %8 = load ptr, ptr %7, align 8
  store ptr null, ptr %7, align 8
  %.not.i.i1 = icmp eq ptr %8, null
  br i1 %.not.i.i1, label %_ZNSt10unique_ptrI21cmGeneratedFileStreamSt14default_deleteIS0_EE5resetEPS0_.exit3, label %_ZNKSt14default_deleteI21cmGeneratedFileStreamEclEPS0_.exit.i.i2

_ZNKSt14default_deleteI21cmGeneratedFileStreamEclEPS0_.exit.i.i2: ; preds = %_ZNSt10unique_ptrI21cmGeneratedFileStreamSt14default_deleteIS0_EE5resetEPS0_.exit
  %9 = load ptr, ptr %8, align 8
  %10 = getelementptr inbounds i8, ptr %9, i64 8
  %11 = load ptr, ptr %10, align 8
  tail call void %11(ptr noundef nonnull align 8 dereferenceable(348) %8) #20
  br label %_ZNSt10unique_ptrI21cmGeneratedFileStreamSt14default_deleteIS0_EE5resetEPS0_.exit3

_ZNSt10unique_ptrI21cmGeneratedFileStreamSt14default_deleteIS0_EE5resetEPS0_.exit3: ; preds = %_ZNSt10unique_ptrI21cmGeneratedFileStreamSt14default_deleteIS0_EE5resetEPS0_.exit, %_ZNKSt14default_deleteI21cmGeneratedFileStreamEclEPS0_.exit.i.i2
  %12 = getelementptr inbounds i8, ptr %0, i64 360
  %13 = load ptr, ptr %12, align 8
  store ptr null, ptr %12, align 8
  %.not.i.i4 = icmp eq ptr %13, null
  br i1 %.not.i.i4, label %_ZNSt10unique_ptrI21cmGeneratedFileStreamSt14default_deleteIS0_EE5resetEPS0_.exit6, label %_ZNKSt14default_deleteI21cmGeneratedFileStreamEclEPS0_.exit.i.i5

_ZNKSt14default_deleteI21cmGeneratedFileStreamEclEPS0_.exit.i.i5: ; preds = %_ZNSt10unique_ptrI21cmGeneratedFileStreamSt14default_deleteIS0_EE5resetEPS0_.exit3
  %14 = load ptr, ptr %13, align 8
  %15 = getelementptr inbounds i8, ptr %14, i64 8
  %16 = load ptr, ptr %15, align 8
  tail call void %16(ptr noundef nonnull align 8 dereferenceable(348) %13) #20
  br label %_ZNSt10unique_ptrI21cmGeneratedFileStreamSt14default_deleteIS0_EE5resetEPS0_.exit6

_ZNSt10unique_ptrI21cmGeneratedFileStreamSt14default_deleteIS0_EE5resetEPS0_.exit6: ; preds = %_ZNSt10unique_ptrI21cmGeneratedFileStreamSt14default_deleteIS0_EE5resetEPS0_.exit3, %_ZNKSt14default_deleteI21cmGeneratedFileStreamEclEPS0_.exit.i.i5
  ret void
}